(lp1
V\u7f3a\u984d
p2
aV\u7576\u7136\u89e3\u4efb
p3
aV\u7f3a\u984d\u4e00\u540d
p4
aV\u66ab\u7f3a
p5
aV\u89e3\u4efb
p6
aV\u66ab\u4e0d\u88dc\u9078\u8463\u4e8b
p7
aV\u61f8\u7f3a
p8
aV\u61f8\u7f3a\u66ab\u4e0d\u88dc\u9078
p9
aV\u738b\u9326\u6a19(\u505c\u6b0a)
p10
aV\u6797\u745e\u5bb9(\u505c\u6b0a)
p11
aV\u694a\u654f\u537f(\u505c\u6b0a)
p12
aV\u738b\u5065\u4ef2(\u505c\u6b0a)
p13
aV\u6797\u9952\u82b3\u862d(\u505c\u6b0a)
p14
aV\u694a\u5e38\u9298(\u505c\u6b0a)
p15
aV\u90b1\u6cf0\u6e90(\u505c\u6b0a)
p16
aV\u694a\u9326\u9298(\u505c\u6b0a)
p17
aV\u9867\u7469\u83ef(\u505c\u6b0a)
p18
aV\u5468\u82f1\u5ddd(\u505c\u6b0a)
p19
aV\u738b \u6708(\u505c\u6b0a)
p20
aV\u8463\u4e8b\u66ab\u7f3a\u4e00\u540d
p21
aV\u64a4\u92b7
p22
aV\u7f3a\u984d\u5f85\u88dc
p23
aV(\u7f3a\u984d)
p24
aV\u8acb\u8fad\u89e3\u4efb\u66ab\u7f3a
p25
aV\u7f3a\u984d\u4fdd\u7559
p26
aV\u7f3a\u984d\u4e00\u4eba
p27
aV\u8fad\u8077\u89e3\u4efb
p28
aV\u7f3a\u984d\u64c7\u671f\u518d\u884c\u88dc\u9078
p29
aV\u59d4\u4efb\u95dc\u4fc2\u4e0d\u5b58\u5728
p30
aV(\u89e3\u4efb)
p31
aV\u7f3a\u984d\u4e00\u540d\uff0c\u53e6\u884c\u88dc\u9078
p32
aV\u7f3a\u984d,\u66ab\u4e0d\u88dc\u9078
p33
aV\u8acb\u8fad
p34
aV(\u53e6\u64c7\u671f\u88dc\u9078)\u7f3a\u984d
p35
aV(\u66ab\u7f3a)
p36
aV\u8607\u4e0a\u8c6a(\u4f9d\u64da\u53f0\u7063\u53f0\u4e2d\u5730\u65b9\u6cd5\u966295\u5e744\u67087\u65e594\u5e74\u5ea6\u8a34\u5b57\u7b2c2356\u865f\u6c11\u4e8b\u5224\u6c7a\u78ba\u5b9a\u76e3\u5bdf\u4eba\u8607\u4e0a\u8c6a\u8207\u5d07\u8c50\u4e8b\u696d\u80a1\u4efd\u6709\u9650\u516c\u53f8\u9593\u4e4b\u76e3\u5bdf\u4eba\u59d4\u4efb\u95dc\u4fc2\u53ca\u80a1\u6771\u95dc\u4fc2\u4e0d\u5b58\u5728)
p37
aV\u9ec3\u5343\u8ca1(\u8fad\u8077)
p38
aV\u66ab\u7f3a\u4e00\u540d
p39
aV\u8fad\u8077\u672a\u88dc\u9078
p40
aV\u65bd\u5fe0\u653f(\u8fad\u8077)
p41
aV\u7f3a\u984d\u4e00\u540d\u66ab\u4e0d\u88dc\u9078
p42
aV\u9673\u5609\u8208(\u89e3\u4efb)
p43
aV\u5433\u79c0\u4e91(\u89e3\u4efb)
p44
aV\u7f3a\u984d\u66ab\u4e0d\u88dc\u9078
p45
aV\u907a\u7f3a\u66ab\u4e0d\u88dc\u9078
p46
aV\u66ab\u7f3a\u4e59\u540d
p47
aV\u5f35\u90c1\u79ae(\u89e3\u4efb)
p48
aV\u7f3a\u984d\u4e0d\u88dc
p49
aV\u66ab\u6642\u7f3a\u984d
p50
aV\u8463\u4e8b\u7f3a\u984d
p51
aV\u7f3a\u984d\uff0c\u66ab\u4e0d\u88dc\u9078
p52
aV\u7f3a\u984d1\u4eba
p53
aV(\u5df2\u89e3\u4efb)
p54
aV\u66ab\u6642\u61f8\u7f3a
p55
aV\u89e3\u4efb(\u5f85\u88dc\u9078)
p56
aV\u7f3a\u984d\u5831\u5099
p57
aV\u9650\u671f\u65bc102\u5e74\u670824\u65e5\u524d\u5b8c\u6210\u6539\u9078\u8463\u4e8b\u3001\u76e3\u5bdf\u4eba\u8b8a\u66f4\u767b\u8a18\uff0c\u903e\u671f\u672a\u6539\u9078\uff0c\u8463\u4e8b\u3001\u76e3\u5bdf\u4eba\u8077\u52d9\u7576\u7136\u89e3\u4efb
p58
aV\u738b\u9e97\u537f \u8acb\u8fad\u89e3\u4efb
p59
aV(\u9650\u671f\u65bc99\u5e743\u67081\u65e5\u524d\u5b8c\u6210\u6539\u9078\u8463\u4e8b\u3001\u76e3\u5bdf\u4eba\u8b8a\u66f4\u767b\u8a18\uff0c\u903e\u671f\u8463\u4e8b\u3001\u76e3\u5bdf\u4eba\u8077\u52d9\u7576\u7136\u89e3\u4efb)
p60
aV\u7576\u7136\u89e3\u4efb(\u672a\u65bc101\u5e7412\u67086\u65e5\u524d\u5b8c\u6210\u6539\u9078\u8463\u76e3\u4e8b\u8b8a\u66f4\u767b\u8a18)
p61
aV\u6797\u7687\u5dde  \u89e3\u4efb\u5f85\u88dc\u9078
p62
aV\u9673\u715c\u975c  \u89e3\u4efb\u5f85\u88dc\u9078
p63
aV\u81ea98\u5e7412\u670823\u65e5\u8d77\u7576\u7136\u89e3\u4efb(\u672c\u5e9c98\u5e749\u67088\u65e5\u9ad8\u5e02\u5e9c\u7d93\u4e8c\u516c\u5b57\u7b2c09800656421\u865f\u51fd)
p64
aV\u7f3a\u984d\u8463\u4e8b\u4e00\u4eba
p65
aV\u7f3a\u984d\u76e3\u5bdf\u4eba\u4e00\u4eba
p66
aV\u6797\u9806\u5fb7(\u7576\u7136\u89e3\u4efb)
p67
aV\u9673\u91d1\u9cf3(\u7576\u7136\u89e3\u4efb)
p68
aV\u6731\u5e9a\u5bc5(\u7576\u7136\u89e3\u4efb)
p69
aV\u6c88\u653f\u4fee(\u7576\u7136\u89e3\u4efb)
p70
aV(\u66ab\u7f3a1\u4f4d)
p71
aV\u6eab\u6587\u83c1\u89e3\u4efb
p72
aV\u6eab\u53e4\u79c0\u9a30\u89e3\u4efb
p73
aV\u5085\u93ae\u8cb4\u89e3\u4efb
p74
aV\u5f35\u4eba\u4ef0(\u5f35\u4eba\u4ef0\u8463\u4e8b\u9577\u81ea99\u5e749\u670815\u65e5\u8d77\u7576\u7136\u89e3\u4efb(\u672c\u5e9c99\u5e746\u670830\u65e5\u9ad8\u5e02\u5e9c\u7d93\u4e8c\u516c\u5b57\u7b2c09900577120\u865f\u51fd))
p75
aV\u9ec3\u77f3\u7389\u89e3\u4efb
p76
aV\u5b6b\u9326\u9cf3 \u89e3\u4efb
p77
aV\u6e6f\u6cbb\u83ef(\u7576\u7136\u89e3\u4efb)
p78
aV\u7f3a\u984d\u5f85\u9078
p79
aV\u7f3a\u984d\u4e0d\u4e88\u88dc\u9078
p80
aV\u89e3\u4efb\u7f3a\u984d
p81
aV\u7f3a\u984d\u7b49\u88dc
p82
aV(931213\u8d77\u59d4\u4efb\u95dc\u4fc2\u4e0d\u5b58\u5728)
p83
aV\u8a3b\u92b7
p84
aV(\u59d4\u4efb\u95dc\u4fc2\u4e0d\u5b58\u5728)
p85
aV\u7f3a\u984d\uff0c\u66ab\u4e0d\u88dc\u5be6
p86
aV(\u64a4\u92b7)
p87
aV\u4ef2\u8a31\u7d20\u537f\u89e3\u4efb
p88
aV\u66fe\u9d3b\u9298(\u6b7b\u4ea1)
p89
aV\u7f3a\u984d\u58f9\u540d
p90
aV(\u7f3a\u984d0
p91
aV\u5510\u7dad\u9418(\u8fad\u8077)
p92
aV(\u66ab\u7f3a\u5f85\u88dc)
p93
aV\u89e3\u4efb(\u9650\u671f\u65bc101\u5e741\u670819\u65e5\u524d\u5b8c\u6210\u6539\u9078\u76e3\u5bdf\u4eba\u8b8a\u66f4\u767b\u8a18\uff0c\u903e\u671f\u76e3\u5bdf\u4eba\u8077\u52d9\u7576\u7136\u89e3\u4efb)
p94
aV\u9673\u8056\u5f97\u3008960618\u9ad8\u5e02\u7d93\u4e8c\u5b57\u7b2c0980035625\u865f\u51fd\u64a4\u92b7\u6b77\u6b21\u8463\u4e8b\u767b\u8a18\u3009
p95
aV\u8521\u78a7\u82b3(95\u5e744\u67081\u65e5\u8d77\u7576\u7136\u89e3\u4efb)
p96
aV\u66ab\u7f3a\u5f85\u88dc
p97
aV\u6797\u5b5f\u752b  \u89e3\u4efb
p98
aV\u7f3a\u984d\u767b\u8a18
p99
aV\u9b4f\u80e1\u826f(\u89e3\u4efb)
p100
aV\u90ed\u5efa\u7537(\u81ea94\u5e7411\u670823\u65e5\u8d77\u89e3\u4efb(\u4f9d\u64da\u53f0\u7063\u9ad8\u96c4\u5730\u65b9\u6cd5\u9662\u6c11\u4e8b\u5224\u6c7a99\u5e747\u670812\u65e599\u5e74\u5ea6\u8a34\u5b57\u7b2c299\u865f\u78ba\u5b9a)
p101
aV\u5f90\u66c9\u96ef\u89e3\u4efb
p102
aV\u7f3a\u984d\u4e00\u540d\u66ab\u4e0d\u4e88\u88dc\u9078
p103
aV\u89e3\u4efb\u4e00\u4eba
p104
aV\u6797\u6587\u96c4 \u89e3\u4efb
p105
aV\u6797\u6587\u77f3 \u89e3\u4efb
p106
aV\u89e3\u4efb\u4e00\u540d
p107
aV\u7f3a\u984d\u4e00\u5e2d
p108
aV\u9ec3\u9673\U000241ac(\u5168\u9ad4\u8463\u76e3\u4e8b\u81ea0980505\u7576\u7136\u89e3\u4efb\u9ad8\u5e02\u5e9c\u7d93\u4e8c\u516c\u5b57\u7b2c09800520230\u865f\u51fd)
p109
aV\u9ec3\u6dfb\u797f(\u5168\u9ad4\u8463\u76e3\u4e8b\u81ea0980505\u7576\u7136\u89e3\u4efb\u9ad8\u5e02\u5e9c\u7d93\u4e8c\u516c\u5b57\u7b2c09800520230\u865f\u51fd)
p110
aV\u9ec3\u6587\u4e01(\u5168\u9ad4\u8463\u76e3\u4e8b\u81ea0980505\u7576\u7136\u89e3\u4efb\u9ad8\u5e02\u5e9c\u7d93\u4e8c\u516c\u5b57\u7b2c09800520230\u865f\u51fd)
p111
aV\u9673\u7950\u5091(\u5168\u9ad4\u8463\u76e3\u4e8b\u81ea0980505\u7576\u7136\u89e3\u4efb\u9ad8\u5e02\u5e9c\u7d93\u4e8c\u516c\u5b57\u7b2c09800520230\u865f\u51fd)
p112
aV\u6797\u6df5\u5bec(\u89e3\u4efb)
p113
aV\u738b\u6a02\u7fa4(\u4f9d\u64da\u53f0\u7063\u6843\u5712\u5730\u65b9\u6cd5\u966298\u5e74\u5ea6\u8a34\u5b57\u7b2c570\u865f\u6c11\u4e8b\u5224\u6c7a\u738b\u6a02\u7fa4\u8207\u9a0f\u6b63\u5149\u96fb\u4f01\u696d\u80a1\u4efd\u6709\u9650\u516c\u53f8\u9593\u65bc97\u5e7411\u67086\u65e5\u8463\u4e8b\u4e4b\u59d4\u4efb\u95dc\u4fc2\u4e0d\u5b58\u5728)
p114
aV\u9673\u4ef0\u654f(\u4f9d\u64da\u53f0\u7063\u6843\u5712\u5730\u65b9\u6cd5\u966298\u5e74\u5ea6\u8a34\u5b57\u7b2c570\u865f\u6c11\u4e8b\u5224\u6c7a\u9673\u4ef0\u654f\u8207\u9a0f\u6b63\u5149\u96fb\u4f01\u696d\u80a1\u4efd\u6709\u9650\u516c\u53f8\u9593\u65bc97\u5e7411\u67086\u65e5\u8463\u4e8b\u4e4b\u59d4\u4efb\u95dc\u4fc2\u4e0d\u5b58\u5728)
p115
aV\u66ab\u7f3a\u4e59\u540d \u64c7\u671f\u88dc\u9078
p116
aV97\u5e745\u670819\u65e5\u8d77\u64a4\u92b7
p117
aV\u7f3a\u984d\u64c7\u671f\u518d\u88dc\u9078
p118
aV\u5ed6\u4fe1\u6210(\u8fad\u8077)
p119
aV\u8463\u4e8b\u7f3a\u984d1\u4eba
p120
aV\u8463\u4e8b(\u9577)\u7f3a\u984d\u4e00\u540d
p121
aV\u4eba\u7f3a\u66ab\u4e0d\u88dc\u9078
p122
aV\u9673\u555f\u9298(\u81ea93.4.6\u8d77\u7576\u7136\u89e3\u4efb)
p123
aV\u7f3a\u984d\u4e00\u540d\uff0c\u66ab\u4e0d\u88dc\u9078
p124
aV\u6c88\u6f22\u6e05(\u5168\u984d\u6cd5\u62cd)
p125
aV\u8521\u5d69\u5c71(\u89e3\u4efb)
p126
aV\u856d\u5eb7\u5110(\u6b7b\u4ea1)(\u856d\u79cb\u59b9\u907a\u7522\u7ba1\u7406\u4eba)
p127
aV\u7f3a\u984d\uff0c\u5f85\u88dc\u9078
p128
aV\u89e3\u4efb(\u7f3a\u984d\u4e00\u540d)
p129
aV\u66ab\u7f3a\u4e00\u4eba
p130
aV\u7f3a\u984d\u66ab\u4e0d\u6539\u6d3e
p131
aV(\u7576\u7136\u89e3\u4efb)
p132
aV(\u7f3a\u984d\u4fdd\u7559)
p133
aV\u937e\u6b63\u5149(\u9650\u671f\u672a\u6539\u9078\u8463\u76e3\u4e8b\uff0c\u5168\u9ad4\u8463\u76e3\u4e8b\u81ea99\u5e7410\u67081\u65e5\u8d77\u7576\u7136\u89e3\u4efb(\u672c\u5e9c99\u5e7410\u67081\u65e5\u9ad8\u5e02\u5e9c\u7d93\u4e8c\u516c\u5b57\u7b2c09900674410\u865f\u51fd))
p134
aV\u9673\u4f51\u96f2(\u9650\u671f\u672a\u6539\u9078\u8463\u76e3\u4e8b\uff0c\u5168\u9ad4\u8463\u76e3\u4e8b\u81ea99\u5e7410\u67081\u65e5\u8d77\u7576\u7136\u89e3\u4efb(\u672c\u5e9c99\u5e7410\u67081\u65e5\u9ad8\u5e02\u5e9c\u7d93\u4e8c\u516c\u5b57\u7b2c09900674410\u865f\u51fd))
p135
aV\u6c5f\u4e16\u7ae0 \u89e3\u4efb
p136
aV\u81e8\u6642\u7ba1\u7406\u4eba\uff1a\u9673\u541b\u8056\u5f8b\u5e2b
p137
aV\u7f3a\u984d\u89e3\u4efb
p138
aV\u4f55\u6625\u91d1(\u81ea93.4.6\u8d77\u7576\u7136\u89e3\u4efb)
p139
aV\u5442\u7d20\u82b3(\u89e3\u4efb)
p140
aV\u674e\u5bf6\u6842(\u4f9d\u64da\u53f0\u7063\u677f\u6a4b\u5730\u65b9\u6cd5\u966295\u5e7411\u67083\u65e5\u677f\u9662\u8f14\u6c11\u5fb795\u5e74\u5ea6\u6cd5\u5b57\u7b2c22\u865f\u51fd\u56d1\u8a17\u674e\u5bf6\u6842\u70ba\u81e8\u6642\u7ba1\u7406\u4eba\u4e4b\u767b\u8a18)
p141
aV\u66ab\u5217\u7f3a\u984d
p142
aV(\u907a\u7f3a\u66ab\u4e0d\u88dc\u9078)
p143
aV(\u9673\u5fd7\u9047\u8463\u4e8b\u4e4b\u8077\u52d9\u696d\u7d93\u53f0\u7063\u53f0\u4e2d\u5730\u65b9\u6cd5\u9662101\u5e7411\u67089\u65e5101\u5e74\u5ea6\u8a34\u5b57\u7b2c1973\u865f\u6c11\u4e8b\u5224\u6c7a\u66f8\u78ba\u8a8d\u8463\u4e8b\u95dc\u4fc2\u4e0d\u5b58\u5728)
p144
aV\u66ab\u7f3a1\u540d
p145
aV\u66ab\u7f3a\u4e0d\u88dc
p146
aV\u89e3\u4efb\u5f85\u88dc\u9078
p147
aV\u5f35\u6e90\u653f(\u81ea\u8acb\u8fad\u8077)
p148
aV\u83ef\u6c38\u6d19(\u81ea\u8acb\u8fad\u8077)
p149
aV\u5468\u9054\u624d(\u81ea\u8acb\u8fad\u8077)
p150
aV\u6b50\u6590\u5152(\u89e3\u4efb)
p151
aV\u66ab\u4e0d\u88dc\u9078
p152
aV\u66ab\u7f3a.
p153
aV\u5433\u60e0\u7f8e  \u89e3\u4efb
p154
aV\u90ed\u4f73\u5b9c  \u89e3\u4efb
p155
aV\u8fad\u8077\u5f85\u88dc
p156
aV\u7f3a\u984d\u4e59\u540d
p157
aV(\u7f3a\u984d\u5f85\u88dc)
p158
aV(\u7f3a\u984d\u53e6\u64c7\u671f\u88dc\u9078)
p159
aV\u61f8\u7f3a\u5f85\u88dc
p160
aV\u7f3a\u984d\u4e00\u54e1
p161
aV\u67ef\u5fd7\u5b8f(\u53bb\u4e16\u89e3\u4efb)
p162
aV\u89e3\u4efb(\u7f3a\u984d)
p163
aV(\u61f8\u7f3a)
p164
aV\u8fad\u8077
p165
aV\u4f9d\u64da\u53f0\u7063\u9ad8\u96c4\u5730\u65b9\u6cd5\u966297\u5e74\u5ea6\u8072\u5b57\u7b2c36\u865f\u56d1\u8a17\u767b\u8a18\u6797\u5433\u67d4\u9cf3\u70ba\u81e8\u6642\u7ba1\u7406\u4eba
p166
aV\u8463\u4e8b\u7f3a\u984d2\u4eba
p167
aV\u5f9e\u7f3a\u88dc\u9078
p168
aV\u8a31\u7d72\u7547(\u53f0\u7063\u9ad8\u96c4\u5730\u65b9\u6cd5\u9662\u65bc98\u5e747\u670831\u65e5\u5224\u6c7a\u78ba\u8a8d\u8a31\u7d72\u7547\u541b\u8207\u5275\u6210\u6578\u4f4d\u884c\u92b7\u80a1\u4efd\u6709\u9650\u516c\u53f8\u4e4b\u76e3\u5bdf\u4eba\u59d4\u4efb\u95dc\u4fc2\u81ea97\u5e745\u670816\u65e5\u8d77\u4e0d\u5b58\u5728\uff0c\u4e26\u65bc\u540c\u5e749\u67089\u65e5\u5224\u6c7a\u78ba\u5b9a)
p169
aV\u66ab\u7f3a(\u6240\u9078\u51fa\u8463\u4e8b\u4e0d\u9858\u586b\u5beb\u8463\u4e8b\u9858\u4efb\u540c\u610f\u66f8)
p170
aV\u51fa\u7f3a(\u8463\u4e8b\u4efb\u671f\u5c46\u6eff\u518d\u88dc\u9078)
p171
aV\u7f3a\u984d1\u540d
p172
aV\u7f3a\u984d\u88dc\u9078
p173
aV(\u8acb\u8fad\uff0c\u907a\u7f3a\u66ab\u4e0d\u88dc\u9078)
p174
aV\u8fad\u8077\u51fa\u7f3a
p175
aV\u8521\u5b97\u5764(\u89e3\u4efb)
p176
aV\u9ec3\u5b4b\u5a1c(\u89e3\u4efb)
p177
aV\u6d2a\u745b\u5ef7(\u89e3\u4efb)
p178
aV\u89e3\u4efb\u5f85\u88dc
p179
aV\u8463\u4e8b\u7f3a\u984d\u4e00\u540d
p180
aV\u8607\u4e00\u8aa0(\u81e8\u6642\u7ba1\u7406\u4eba\u745e\u6210\u5f8b\u5e2b)
p181
aV\u8acb\u8fad\u7f3a\u984d\u66ab\u4e0d\u88dc\u9078
p182
aV(\u907a\u7f3a\u5f85\u80a1\u6771\u6703\u88dc\u9078)
p183
aV\u8463\u4e8b\u8fad\u8077\u89e3\u4efb
p184
aV\u6e05\u7b97\u4eba\u5f35\u745e\u69ae\u65bc\u64a4\u92b7\u83ef\u83f1\u5de5\u696d\u80a1\u4efd\u6709\u9650\u516c\u53f8\u80a1\u6771\u81e8\u6642\u6703\u6703\u8b70\u6c7a\u8b70\u8a34\u8a1f\u7a0b\u5e8f\u7d42\u7d50\u524d\uff0c\u4e0d\u5f97\u884c\u4f7f\u6e05\u7b97\u4eba\u4e4b\u8077\u6b0a\uff0c\u539f\u6cd5\u5b9a\u4ee3\u8868\u4eba\u70ba\u9673\u4ec1\u6fa4\uff0c\u5176\u8077\u6b0a\u4f9d\u516c\u53f8\u6cd5\u7b2c208\u689d\u4e4b\u898f\u5b9a
p185
aV\u9673\u5982\u701b(\u89e3\u4efb)
p186
aV(\u7f3a\u984d\u4e00\u540d)
p187
aV\u7f3a\u984d\u56db\u540d
p188
aV\u674e\u5c1a\u8c6a(\u81e8\u6642\u7ba1\u7406\u4eba)
p189
aV\u8463\u4e8b\u89e3\u4efb
p190
aV\u89e3\u4efb,\u66ab\u4e0d\u6307\u6d3e
p191
aV\u66f9\u5bcc\u7a0b(\u81ea\u8acb\u8fad\u8077)
p192
aV\u66ab\u7f3a\u5f85\u88dc\u9078
p193
aV\u8fad\u8077\u89e3\u4efb\u7f3a\u984d
p194
aV\u738b\u4fdd\u9806(\u89e3\u4efb)
p195
aV\u5f85\u88dc\u9078
p196
aV\u8fad\u8077\u5c1a\u672a\u88dc\u9078
p197
aV\u7f3a\u984d(\u5f85\u905e\u88dc)
p198
aV\u675c\u6771\u5cb3(\u81ea93\u5e747\u670823\u65e5\u8d77\u59d4\u4efb\u95dc\u4fc2\u4e0d\u5b58\u5728)
p199
aV\u672c\u90e897\u5e742\u670812\u65e5\u7d93\u6388\u4e2d\u5b57\u7b2c09736011800\u865f\u51fd\u4f9d\u53f0\u7063\u53f0\u5357\u5730\u65b9\u6cd5\u966296\u5e74\u5ea6\u7c21\u5b57\u7b2c2153\u865f\u7c21\u6613\u5224\u6c7a\u64a4\u92b7\u8463\u4e8b\u25a0\u9673\u711c\u81f4\u25a0\u53ca\u76e3\u5bdf\u4eba\u25a0\u59dc\u6587\u6b63\u25a0\u4e4b\u90e8\u5206\u767b\u8a18
p200
aV(\u6b7b\u4ea1)\u5f9e\u7f3a
p201
aV\u91d1\u61cb\u6649(\u7576\u7136\u89e3\u4efb)
p202
aV\u5f35\u8015\u7530(\u7576\u7136\u89e3\u4efb)
p203
aV\u7a0b\u7dba\u9e97(\u7576\u7136\u89e3\u4efb)
p204
aV\u5f35\u5065\u660c(\u7576\u7136\u89e3\u4efb)
p205
aV\u7576\u7136\u89e3\u4efb(960528\u8d77\u59d4\u4efb\u95dc\u4fc2\u4e0d\u5b58\u5728)
p206
aV\u6797\u967d\u660e(\u9650\u671f\u672a\u6539\u9078\u8463\u76e3\u4e8b\uff0c\u5168\u9ad4\u8463\u76e3\u4e8b\u81ea100\u5e745\u670816\u65e5\u7576\u7136\u89e3\u4efb)
p207
aV\u9ad8\u6dd1\u7f8e(\u9650\u671f\u672a\u6539\u9078\u8463\u76e3\u4e8b\uff0c\u5168\u9ad4\u8463\u76e3\u4e8b\u81ea100\u5e745\u670816\u65e5\u7576\u7136\u89e3\u4efb)
p208
aV\u6c6a\u9f8d\u7965(\u9650\u671f\u672a\u6539\u9078\u8463\u76e3\u4e8b\uff0c\u5168\u9ad4\u8463\u76e3\u4e8b\u81ea100\u5e745\u670816\u65e5\u7576\u7136\u89e3\u4efb)
p209
aV\u89e3\u4efb  \u7f3a\u984d
p210
aV(\u66ab\u4e0d\u88dc\u9078)
p211
aV\u7f3a\u984d\uff0e\u5f85\u88dc\u9078
p212
aV\u7f3a\u984d\u5f85\u88dc\u9078
p213
aV\u8463\u4e8b\u7f3a\u984d\u66ab\u4e0d\u88dc\u9078
p214
aV\u5f35\u5609\u84c9(\u89e3\u4efb)
p215
aV\u5433\u932b\u5c71(\u89e3\u4efb)
p216
aV\u7f3a\u984d\u4e00\u4eba\u66ab\u4e0d\u88dc\u9078
p217
aV\u7f3a\u984d2\u540d
p218
aV\u6797\u514b\u66f8(\u4f9d\u64da\u53f0\u7063\u82d7\u6817\u5730\u65b9\u6cd5\u966295\u5e74\u5ea6\u8a34\u5b57\u7b2c256\u865f\u6c11\u4e8b\u5224\u6c7a\u78ba\u5b9a\u59d4\u4efb\u95dc\u4fc2\u81ea95\u5e745\u670810\u65e5\u8d77\u4e0d\u5b58\u5728\uff0c\u4e26\u7d93\u672c\u90e8\u7d93\u6388\u4e2d\u5b57\u7b2c09533163770\u53ca09533163760\u865f\u51fd\u8a3b\u8a18)
p219
aV\u694a\u5e78\u66f8(\u8fad\u8077)
p220
aV\u89e3\u4efb\uff0c\u7f3a\u984d\u5f85\u88dc
p221
aV\u7f3a\u984d\u4e00\u540d\uff0c\u672a\u88dc\u9078
p222
aV\u6797\u9577\u6d32(\u6797\u9673\u745e\u971e951227\u70ba\u81e8\u6642\u7ba1\u7406\u4eba)9\u4f9d\u64da960417\u9ad8\u5e02\u5e9c\u5efa\u4e8c\u516c\u5b57\u7b2c09600457150\u865f\u51fd\u8fa6\u7406\u767b\u8a18
p223
aV\u5f35\u745e\u8c37(\u5168\u9ad4\u8463\u76e3\u4e8b\u7d93\u9ad8\u96c4\u5e02\u653f\u5e9c\u65bc96\u5e746\u67085\u65e5\u4ee5\u9ad8\u5e02\u5e9c\u5efa\u4e8c\u516c\u5b57\u7b2c09600562470\u865f\u51fd\u81ea96\u5e746\u67085\u65e5\u8d77\u7576\u7136\u89e3\u4efb)
p224
aV\u9673\u7530\u79ae  \u7576\u7136\u89e3\u4efb\u5efa\u4e8c\u516c\u5b5709600418330
p225
aV\u53bb\u901d\u89e3\u4efb
p226
aV\u7576\u7136\u89e3\u4efb(\u672a\u65bc100\u5e741\u670827\u65e5\u524d\u5b8c\u6210\u6539\u9078\u8463\u4e8b\u3001\u76e3\u5bdf\u4eba\u8b8a\u66f4\u767b\u8a18\uff0c\u5168\u9ad4\u8463\u76e3\u4e8b\u8077\u52d9\u81ea100\u5e741\u670828\u65e5\u8d77\u7576\u7136\u89e3\u4efb)
p227
aV\u694a\u6587\u7487(\u89e3\u4efb)
p228
aV\u90b1\u65b0\u59b9(\u81ea95\u5e744\u67081\u65e5\u8d77\u7576\u7136\u89e3\u4efb)
p229
aV\u767d\u745e\u6e90(\u7576\u7136\u89e3\u4efb)
p230
aV\u97d3\u5fc5\u5fe0 \u89e3\u4efb
p231
aV\u8b1d\u6f22\u5f37(\u5168\u9ad4\u8463\u76e3\u4e8b\u81ea0980505\u7576\u7136\u89e3\u4efb\u9ad8\u5e02\u5e9c\u7d93\u4e8c\u516c\u5b57\u7b2c09800520240\u865f\u51fd)
p232
aV\u5442\u660e\u4fee\u5f37(\u5168\u9ad4\u8463\u76e3\u4e8b\u81ea0980505\u7576\u7136\u89e3\u4efb\u9ad8\u5e02\u5e9c\u7d93\u4e8c\u516c\u5b57\u7b2c09800520240\u865f\u51fd)
p233
aV\u738b\u6587\u8070(\u89e3\u4efb)
p234
aV\u8d99\u53cb\u90a6(\u7d93\u53f0\u7063\u9ad8\u96c4\u5730\u65b9\u6cd5\u9662\u6c11\u4e8b\u5224\u6c7a\u78ba\u5b9a\uff0c\u8a3b\u92b7\u8d99\u53cb\u90a6\u81ea98\u5e746\u670819\u65e5\u8d77\u4e4b\u8463\u4e8b\u66a8\u8463\u4e8b\u9577\u767b\u8a18(\u672c\u5e9c99\u5e748\u670812\u65e5\u9ad8\u5e02\u5e9c\u7d93\u4e8c\u516c\u5b57\u7b2c09900614420\u865f\u51fd))
p235
aV\u6797\u4fca\u4ec1 (\u9650\u671f\u65bc102\u5e741\u670816\u65e5\u524d\u5b8c\u6210\u6539\u9078\u8463\u4e8b\u3001\u76e3\u5bdf\u4eba\u8b8a\u66f4\u767b\u8a18\uff0c\u903e\u671f\u672a\u6539\u9078\uff0c\u8463\u4e8b\u3001\u76e3\u5bdf\u4eba\u8077\u52d9\u7576\u7136\u89e3\u4efb)
p236
aV\u8d99\u5efa\u6771 (\u9650\u671f\u65bc102\u5e741\u670816\u65e5\u524d\u5b8c\u6210\u6539\u9078\u8463\u4e8b\u3001\u76e3\u5bdf\u4eba\u8b8a\u66f4\u767b\u8a18\uff0c\u903e\u671f\u672a\u6539\u9078\uff0c\u8463\u4e8b\u3001\u76e3\u5bdf\u4eba\u8077\u52d9\u7576\u7136\u89e3\u4efb)
p237
aV\u5c71\u660e\u74b0\u4fdd\u6709\u9650\u516c\u53f8 (\u9650\u671f\u65bc102\u5e741\u670816\u65e5\u524d\u5b8c\u6210\u6539\u9078\u8463\u4e8b\u3001\u76e3\u5bdf\u4eba\u8b8a\u66f4\u767b\u8a18\uff0c\u903e\u671f\u672a\u6539\u9078\uff0c\u8463\u4e8b\u3001\u76e3\u5bdf\u4eba\u8077\u52d9\u7576\u7136\u89e3\u4efb)
p238
aV\u5f35\u4e16\u69ae (\u9650\u671f\u65bc102\u5e741\u670816\u65e5\u524d\u5b8c\u6210\u6539\u9078\u8463\u4e8b\u3001\u76e3\u5bdf\u4eba\u8b8a\u66f4\u767b\u8a18\uff0c\u903e\u671f\u672a\u6539\u9078\uff0c\u8463\u4e8b\u3001\u76e3\u5bdf\u4eba\u8077\u52d9\u7576\u7136\u89e3\u4efb)
p239
aV\u8d99\u90b1\u745e\u862d (\u9650\u671f\u65bc102\u5e741\u670816\u65e5\u524d\u5b8c\u6210\u6539\u9078\u8463\u4e8b\u3001\u76e3\u5bdf\u4eba\u8b8a\u66f4\u767b\u8a18\uff0c\u903e\u671f\u672a\u6539\u9078\uff0c\u8463\u4e8b\u3001\u76e3\u5bdf\u4eba\u8077\u52d9\u7576\u7136\u89e3\u4efb)
p240
aV\u9673\u535a\u5f6c (\u9650\u671f\u65bc102\u5e741\u670816\u65e5\u524d\u5b8c\u6210\u6539\u9078\u8463\u4e8b\u3001\u76e3\u5bdf\u4eba\u8b8a\u66f4\u767b\u8a18\uff0c\u903e\u671f\u672a\u6539\u9078\uff0c\u8463\u4e8b\u3001\u76e3\u5bdf\u4eba\u8077\u52d9\u7576\u7136\u89e3\u4efb)
p241
aV(\u6b7b\u4ea1\u89e3\u4efb)
p242
aV\u61f8\u7f3a\uff0c\u66ab\u4e0d\u88dc\u9078
p243
aV\u66ab\u7f3a\u4e8c\u4eba
p244
aV\u7f3a\u984d1\u540d\u66ab\u4e0d\u88dc\u9078
p245
aV\u81ea\u884c\u8fad\u8077\u89e3\u4efb
p246
aV\u7f3a\u984d(\u66ab\u4e0d\u88dc\u9078)
p247
aV(\u7f3a\u984d\u66ab\u4e0d\u88dc\u9078)
p248
aV\u8fad\u8077\uff0c\u66ab\u4e0d\u88dc\u9078
p249
aV\u5433\u9ec3\u6c34\u73e0(\u5168\u9ad4\u8463\u76e3\u4e8b\u81ea99\u5e748\u670815\u65e5\u8d77\u7576\u7136\u89e3\u4efb(\u672c\u5e9c99\u5e745\u670831\u65e5\u9ad8\u5e02\u5e9c\u7d93\u4e8c\u516c\u5b57\u7b2c09900544620\u865f\u51fd))
p250
aV\u5433\u5bec\u96c4(\u5168\u9ad4\u8463\u76e3\u4e8b\u81ea99\u5e748\u670815\u65e5\u8d77\u7576\u7136\u89e3\u4efb(\u672c\u5e9c99\u5e745\u670831\u65e5\u9ad8\u5e02\u5e9c\u7d93\u4e8c\u516c\u5b57\u7b2c09900544620\u865f\u51fd))
p251
aV\u5433\u653f\u96c4(\u5168\u9ad4\u8463\u76e3\u4e8b\u81ea99\u5e748\u670815\u65e5\u8d77\u7576\u7136\u89e3\u4efb(\u672c\u5e9c99\u5e745\u670831\u65e5\u9ad8\u5e02\u5e9c\u7d93\u4e8c\u516c\u5b57\u7b2c09900544620\u865f\u51fd))
p252
aV\u8a31\u9806\u8208(\u5168\u9ad4\u8463\u76e3\u4e8b\u81ea99\u5e748\u670815\u65e5\u8d77\u7576\u7136\u89e3\u4efb(\u672c\u5e9c99\u5e745\u670831\u65e5\u9ad8\u5e02\u5e9c\u7d93\u4e8c\u516c\u5b57\u7b2c09900544620\u865f\u51fd))
p253
aV\u85cd\u4e2d\u83ef(\u5168\u9ad4\u8463\u76e3\u4e8b\u81ea99\u5e748\u670815\u65e5\u8d77\u7576\u7136\u89e3\u4efb(\u672c\u5e9c99\u5e745\u670831\u65e5\u9ad8\u5e02\u5e9c\u7d93\u4e8c\u516c\u5b57\u7b2c09900544620\u865f\u51fd))
p254
aV\u5433\u660e\u98db(\u5168\u9ad4\u8463\u76e3\u4e8b\u81ea99\u5e748\u670815\u65e5\u8d77\u7576\u7136\u89e3\u4efb(\u672c\u5e9c99\u5e745\u670831\u65e5\u9ad8\u5e02\u5e9c\u7d93\u4e8c\u516c\u5b57\u7b2c09900544620\u865f\u51fd))
p255
aV\u5433\u660e\u9054(\u5168\u9ad4\u8463\u76e3\u4e8b\u81ea99\u5e748\u670815\u65e5\u8d77\u7576\u7136\u89e3\u4efb(\u672c\u5e9c99\u5e745\u670831\u65e5\u9ad8\u5e02\u5e9c\u7d93\u4e8c\u516c\u5b57\u7b2c09900544620\u865f\u51fd))
p256
aV\u738b\u570b\u7537(\u9650\u671f\u65bc99\u5e745\u670821\u65e5\u524d\u5b8c\u6210\u6539\u9078\u8463\u4e8b\u3001\u76e3\u5bdf\u4eba\u8b8a\u66f4\u767b\u8a18\uff0c\u903e\u671f\u8463\u4e8b\u3001\u76e3\u5bdf\u4eba\u8077\u52d9\u7576\u7136\u89e3\u4efb
p257
aV\u9ec3\u5bcc\u4ec1(\u9650\u671f\u65bc99\u5e745\u670821\u65e5\u524d\u5b8c\u6210\u6539\u9078\u8463\u4e8b\u3001\u76e3\u5bdf\u4eba\u8b8a\u66f4\u767b\u8a18\uff0c\u903e\u671f\u8463\u4e8b\u3001\u76e3\u5bdf\u4eba\u8077\u52d9\u7576\u7136\u89e3\u4efb
p258
aV\u9ec3\u91d1\u7f8e(\u9650\u671f\u65bc99\u5e745\u670821\u65e5\u524d\u5b8c\u6210\u6539\u9078\u8463\u4e8b\u3001\u76e3\u5bdf\u4eba\u8b8a\u66f4\u767b\u8a18\uff0c\u903e\u671f\u8463\u4e8b\u3001\u76e3\u5bdf\u4eba\u8077\u52d9\u7576\u7136\u89e3\u4efb
p259
aV\u6797\u6167\u5adc(\u9650\u671f\u65bc99\u5e745\u670821\u65e5\u524d\u5b8c\u6210\u6539\u9078\u8463\u4e8b\u3001\u76e3\u5bdf\u4eba\u8b8a\u66f4\u767b\u8a18\uff0c\u903e\u671f\u8463\u4e8b\u3001\u76e3\u5bdf\u4eba\u8077\u52d9\u7576\u7136\u89e3\u4efb
p260
aV\u6797\u7167\u7d14(\u89e3\u4efb)
p261
aV\u6797\u76c8\u541b(\u89e3\u4efb)
p262
aV\u9ec3\u79c0\u78a7(\u51fa\u8cc7\u984d\u5168\u6578\u6cd5\u62cd)
p263
aV\u65b9\u8000\u8f1d \u89e3\u4efb
p264
aV\u81ea\u52d5\u8fad\u8077\u89e3\u4efb
p265
aV\u6797\u53f0\u751f(\u9650\u671f\u672a\u6539\u9078\u8463\u76e3\u4e8b\uff0c\u5168\u9ad4\u8463\u76e3\u4e8b\u81ea98\u5e7410\u670812\u65e5\u8d77\u7576\u7136\u89e3\u4efb(\u672c\u5e9c98\u5e7410\u670814\u65e5\u9ad8\u5e02\u5e9c\u7d93\u4e8c\u516c\u5b57\u7b2c09800694300\u865f\u51fd)
p266
aV\u8521\u6167\u73b2(\u64a4\u92b788\u5e743\u67089\u65e5\u9ad8\u5e02\u5efa\u8a2d\u4e8c\u5b57\u7b2c08805258400\u865f\u51fd\u6838\u51c6\u6539\u9078\u8463\u76e3\u4e8b\u8b8a\u66f4\u767b\u8a18\u8521\u6167\u73b2\u76e3\u5bdf\u4eba\u767b\u8a18(\u672c\u5e9c97\u5e7411\u670825\u65e5\u9ad8\u5e02\u5e9c\u5efa\u4e8c\u5b57\u7b2c0970062314\u865f\u516c\u544a)
p267
aV\u6797\u77f3\u5c71(\u7576\u7136\u89e3\u4efb)
p268
aV\u76e3\u5bdf\u4eba\u66ab\u7f3a1\u4eba
p269
aV\u8463\u660e\u82ac(\u8463\u660e\u82ac\u4e4b\u8463\u4e8b\u8077\u52d9\u696d\u7d93\u53f0\u7063\u9ad8\u96c4\u5730\u65b9\u6cd5\u9662\u6aa2\u5bdf\u7f7297\u5e746\u67082\u65e5\u96c4\u6aa2\u60df\u5d5097\u57f73219\u5b57\u7b2c40860\u865f\u53ca96\u5e7412\u67086\u65e596\u5e74\u5ea6\u8a34\u5b57\u7b2c2383\u865f\u5211\u4e8b\u5224\u6c7a\u66f8\u5224\u6c7a\u64a4\u92b7\u8463\u4e8b\u4e4b\u90e8\u4efd\u767b\u8a18)
p270
aV\u81e8\u6642\u7ba1\u7406\u4eba\uff1a\u8a79\u671d\u9806
p271
aV\u6eab\u61ff\u73b2(\u7576\u7136\u89e3\u4efb)
p272
aV\u5433\u79cb\u767c(\u89e3\u4efb)
p273
aV\u7f3a\u984d\u4e2d
p274
aV\u6797\u70c8\u5802(\u5168\u9ad4\u8463\u76e3\u4e8b\u81ea99\u5e7411\u670828\u65e5\u8d77\u7576\u7136\u89e3\u4efb(\u672c\u5e9c99\u5e748\u670816\u65e5\u9ad8\u5e02\u5e9c\u7d93\u4e8c\u516c\u5b57\u7b2c09900626490\u865f\u51fd))
p275
aV\u5468\u7fa9\u5cf0(\u5168\u9ad4\u8463\u76e3\u4e8b\u81ea99\u5e7411\u670828\u65e5\u8d77\u7576\u7136\u89e3\u4efb(\u672c\u5e9c99\u5e748\u670816\u65e5\u9ad8\u5e02\u5e9c\u7d93\u4e8c\u516c\u5b57\u7b2c09900626490\u865f\u51fd))
p276
aV\u694a\u5149\u96c4(\u5168\u9ad4\u8463\u76e3\u4e8b\u81ea99\u5e7411\u670828\u65e5\u8d77\u7576\u7136\u89e3\u4efb(\u672c\u5e9c99\u5e748\u670816\u65e5\u9ad8\u5e02\u5e9c\u7d93\u4e8c\u516c\u5b57\u7b2c09900626490\u865f\u51fd))
p277
aV\u6797\u5fd7\u8070(\u5168\u9ad4\u8463\u76e3\u4e8b\u81ea99\u5e7411\u670828\u65e5\u8d77\u7576\u7136\u89e3\u4efb(\u672c\u5e9c99\u5e748\u670816\u65e5\u9ad8\u5e02\u5e9c\u7d93\u4e8c\u516c\u5b57\u7b2c09900626490\u865f\u51fd))
p278
aV\u6234\u6587\u7530(\u5168\u9ad4\u8463\u76e3\u4e8b\u81ea99\u5e7411\u670828\u65e5\u8d77\u7576\u7136\u89e3\u4efb(\u672c\u5e9c99\u5e748\u670816\u65e5\u9ad8\u5e02\u5e9c\u7d93\u4e8c\u516c\u5b57\u7b2c09900626490\u865f\u51fd))
p279
aV\u9023\u6dd1\u971e(\u5168\u9ad4\u8463\u76e3\u4e8b\u81ea99\u5e7411\u670828\u65e5\u8d77\u7576\u7136\u89e3\u4efb(\u672c\u5e9c99\u5e748\u670816\u65e5\u9ad8\u5e02\u5e9c\u7d93\u4e8c\u516c\u5b57\u7b2c09900626490\u865f\u51fd))
p280
aV\u8521\u660e\u771f \u89e3\u4efb
p281
aV\u8463\u4e8b\u7f3a\u984d1\u4eba\u66ab\u4e0d\u88dc\u9078
p282
aV\u5289\u8cb4\u6982(\u5168\u9ad4\u8463\u76e3\u4e8b\u81ea97\u5e7412\u670826\u65e5\u8d77\u7576\u7136\u89e3\u4efb(\u672c\u5e9c98\u5e741\u670816\u65e5\u9ad8\u5e02\u5e9c\u7d93\u4e8c\u516c\u5b57\u7b2c09800413090\u865f\u51fd)
p283
aV\u9673\u6649\u5609(\u89e3\u4efb)
p284
aV\u5468\u5b78(\u89e3\u4efb)
p285
aV\u9ec3\u91d1\u4ec1(\u89e3\u4efb)
p286
aV\u66ab\u7a7a\u4e0b\u6b21\u88dc\u9078
p287
aV(\u66ab\u7a7a\u4e0b\u6b21\u88dc\u9078)
p288
aV\u9650\u671f\u65bc101\u5e747\u670816\u65e5\u524d\u5b8c\u6210\u6539\u9078\u8463\u4e8b\u3001\u76e3\u5bdf\u4eba\u8b8a\u66f4\u767b\u8a18\u903e\u671f\u8463\u4e8b\u3001\u76e3\u5bdf\u4eba\u8077\u52d9\u7576\u7136\u89e3\u4efb
p289
aV\u694a\u9678(\u7576\u7136\u89e3\u4efb)
p290
aV\u9673\u8c50\u660e(\u7576\u7136\u89e3\u4efb)
p291
aV\u9673\u6625\u7f8e(\u7576\u7136\u89e3\u4efb)
p292
aV\u8521\u5fe0\u52dd(\u7576\u7136\u89e3\u4efb)
p293
aV\u694a\u6dd1\u60e0(\u7576\u7136\u89e3\u4efb)
p294
aV\u90ed\u9298\u79c0(\u7576\u7136\u89e3\u4efb)
p295
aV\u9673\u9ec3\u7d20\u971e(\u7576\u7136\u89e3\u4efb)
p296
aV\u90ed\u570b\u8056 \u89e3\u4efb
p297
aV\u8a31\u897f\u83ef  \u89e3\u4efb
p298
aV\u674e\u4fca\u660e  \u89e3\u4efb
p299
aV\u738b\u6771\u78a7  \u89e3\u4efb
p300
aV\u5289\u5b5f\u660c(\u9650\u671f\u65bc98\u5e745\u670810\u65e5\u524d\u5b8c\u6210\u6539\u9078\u8463\u76e3\u4e8b\u8b8a\u66f4\u767b\u8a18\uff0c\u56e0\u903e\u671f\u672a\u8fa6\u7406\u6539\u9078\uff0c\u8463\u76e3\u4e8b\u8077\u52d9\u81ea98\u5e745\u670812\u65e5\u8d77\u7576\u7136\u89e3\u4efb(\u672c\u5e9c98\u5e745\u670814\u65e5\u9ad8\u5e02\u5e9c\u7d93\u4e8c\u81ea\u7b2c09800528650\u865f\u51fd)
p301
aV\u5289\u8302\u5168(\u9650\u671f\u65bc98\u5e745\u670810\u65e5\u524d\u5b8c\u6210\u6539\u9078\u8463\u76e3\u4e8b\u8b8a\u66f4\u767b\u8a18\uff0c\u56e0\u903e\u671f\u672a\u8fa6\u7406\u6539\u9078\uff0c\u8463\u76e3\u4e8b\u8077\u52d9\u81ea98\u5e745\u670812\u65e5\u8d77\u7576\u7136\u89e3\u4efb(\u672c\u5e9c98\u5e745\u670814\u65e5\u9ad8\u5e02\u5e9c\u7d93\u4e8c
p302
aV\u5289\u6e05\u5b89(\u9650\u671f\u65bc98\u5e745\u670810\u65e5\u524d\u5b8c\u6210\u6539\u9078\u8463\u76e3\u4e8b\u8b8a\u66f4\u767b\u8a18\uff0c\u56e0\u903e\u671f\u672a\u8fa6\u7406\u6539\u9078\uff0c\u8463\u76e3\u4e8b\u8077\u52d9\u81ea98\u5e745\u670812\u65e5\u8d77\u7576\u7136\u89e3\u4efb(\u672c\u5e9c98\u5e745\u670814\u65e5\u9ad8\u5e02\u5e9c\u7d93\u4e8c
p303
aV\u5289\u653f\u5112(\u9650\u671f\u65bc98\u5e745\u670810\u65e5\u524d\u5b8c\u6210\u6539\u9078\u8463\u76e3\u4e8b\u8b8a\u66f4\u767b\u8a18\uff0c\u56e0\u903e\u671f\u672a\u8fa6\u7406\u6539\u9078\uff0c\u8463\u76e3\u4e8b\u8077\u52d9\u81ea98\u5e745\u670812\u65e5\u8d77\u7576\u7136\u89e3\u4efb(\u672c\u5e9c98\u5e745\u670814\u65e5\u9ad8\u5e02\u5e9c\u7d93\u4e8c
p304
aV\u6797\u7fa9\u96c4(94.11.6\u89e3\u4efb)
p305
aV\u8521\u60e0\u82ac(94.11.6\u89e3\u4efb)
p306
aV\u7c21\u5d0e\u7766(\u89e3\u4efb)
p307
aV\u90ed\u52f5\u5fd7(\u89e3\u4efb)
p308
aV\u674e\u5f37(\u89e3\u4efb)
p309
aV\u8b5a\u9996\u624d(\u89e3\u4efb)
p310
aV\u8a31\u4e01\u6e90(\u5168\u9ad4\u8463\u76e3\u4e8b\u81ea97\u5e7412\u670825\u65e5\u8d77\u7576\u7136\u89e3\u4efb(\u672c\u5e9c97\u5e7412\u670825\u65e5\u9ad8\u5e02\u5e9c\u5efa\u4e8c\u5b57\u7b2c09700792940\u865f\u51fd)
p311
aV\u9673\u6587\u6b66(\u5168\u9ad4\u8463\u76e3\u4e8b\u81ea97\u5e7412\u670825\u65e5\u8d77\u7576\u7136\u89e3\u4efb(\u672c\u5e9c97\u5e7412\u670825\u65e5\u9ad8\u5e02\u5e9c\u5efa\u4e8c\u5b57\u7b2c09700792940\u865f\u51fd)
p312
aV\u6d2a\u714c\u666f(\u5168\u9ad4\u8463\u76e3\u4e8b\u81ea97\u5e7412\u670825\u65e5\u8d77\u7576\u7136\u89e3\u4efb(\u672c\u5e9c97\u5e7412\u670825\u65e5\u9ad8\u5e02\u5e9c\u5efa\u4e8c\u5b57\u7b2c09700792940\u865f\u51fd)
p313
aV\u9ec3\u5fe0\u7fa9(\u5168\u9ad4\u8463\u76e3\u4e8b\u81ea97\u5e7412\u670825\u65e5\u8d77\u7576\u7136\u89e3\u4efb(\u672c\u5e9c97\u5e7412\u670825\u65e5\u9ad8\u5e02\u5e9c\u5efa\u4e8c\u5b57\u7b2c09700792940\u865f\u51fd)
p314
aV\u9673\u4e00\u5cef(\u81ea99\u5e747\u670831\u65e5\u8d77\u7576\u7136\u4efb(\u672c\u5e9c99\u5e745\u670819\u65e5\u9ad8\u5e02\u5e9c\u7d93\u4e8c\u516c\u5b57\u7b2c09900531440\u865f\u51fd))
p315
aV\u694a\u932b\u9e9f(\u81ea99\u5e747\u670831\u65e5\u8d77\u7576\u7136\u4efb(\u672c\u5e9c99\u5e745\u670819\u65e5\u9ad8\u5e02\u5e9c\u7d93\u4e8c\u516c\u5b57\u7b2c09900531440\u865f\u51fd))
p316
aV\u738b\u570b\u986f(\u81ea99\u5e747\u670831\u65e5\u8d77\u7576\u7136\u4efb(\u672c\u5e9c99\u5e745\u670819\u65e5\u9ad8\u5e02\u5e9c\u7d93\u4e8c\u516c\u5b57\u7b2c09900531440\u865f\u51fd))
p317
aV\u7f85\u8ca1\u83ef(\u81ea99\u5e747\u670831\u65e5\u8d77\u7576\u7136\u4efb(\u672c\u5e9c99\u5e745\u670819\u65e5\u9ad8\u5e02\u5e9c\u7d93\u4e8c\u516c\u5b57\u7b2c09900531440\u865f\u51fd))
p318
aV\u9673\u79c0\u60e0(\u89e3\u4efb)
p319
aV\u674e\u672c\u69ae(\u89e3\u4efb)
p320
aV\u9650\u671f\u672a\u6539\u9078\uff0c\u7576\u7136\u89e3\u4efb
p321
aV\u666e\u8a0a\u634c\u5275\u696d\u6295\u8cc7\u80a1\u4efd\u6709\u9650\u516c\u53f8(\u89e3\u4efb)
p322
aV\u9ec3\u6176\u9298(\u89e3\u4efb)
p323
aV\u9ec3\u5b87\u6c11(\u9650\u671f\u672a\u6539\u9078\u8463\u76e3\u4e8b\uff0c\u5168\u9ad4\u8463\u76e3\u4e8b\u81ea99\u5e746\u67081\u65e5\u8d77\u7576\u7136\u89e3\u4efb(\u672c\u5e9c99\u5e746\u67083\u65e5\u9ad8\u5e02\u5e9c\u7d93\u4e8c\u516c\u5b57\u7b2c09900547660\u865f\u51fd))
p324
aV\u6309\u53f0\u7063\u5c4f\u6771\u5730\u65b9\u6cd5\u9662101\u5e74\u5ea6\u8a34\u5b57\u7b2c447\u865f\u6c11\u4e8b\u5224\u6c7a\u78ba\u8a8d\u856d\u9e97\u8389\u8207\u8cb4\u516c\u53f8\u4e4b\u76e3\u5bdf\u4eba\u59d4\u4efb\u95dc\u4fc2\u81ea94\u5e7410\u670822\u65e5\u8d77\u4e0d\u5b58\u5728\uff0c\u4e26\u65bc101\u5e7411\u670821\u65e5\u78ba\u5b9a\u5728\u6848\uff0c\u5176\u76e3\u5bdf\u4eba\u4e4b\u90e8\u5206\u767b\u8a18\u61c9\u4e88\u8a3b\u92b7
p325
aV\u76e3\u5bdf\u4eba\u8fad\u8077\u7f3a\u984d\u4e00\u540d
p326
aV\u7f3a\u984d\u6539\u6d3e\u4e2d
p327
aV\u8fad\u8077\u7f3a\u984d\u4e00\u540d
p328
aV\u90b1\u5782\u5ddd(\u6b7b\u4ea1)
p329
aV\u842c\u8fea\u582f(\u7576\u7136\u89e3\u4efb)
p330
aV\u718a\u6069\u975c(91\u5e747\u670821\u65e5\u8d77\u7576\u7136\u89e3\u4efb)
p331
aV\u8a31\u6fa4\u52f3 \u89e3\u4efb
p332
aV\u6797\u660e\u9054  \u89e3\u4efb
p333
aV\u9673\u5feb\u3008\u8acb\u8fad\u3009
p334
aV\u5f35\u60e0\u537f\u3008\u8acb\u8fad\u3009
p335
aV\u8b1d\u658c\u6689\u3008\u8acb\u8fad\u3009
p336
aV\u4f55\u4f73\u82ac(\u89e3\u4efb)
p337
aV\u59da\u7426(\u89e3\u4efb)
p338
aV(\u8acb\u8fad)
p339
aV\u8463\u4e8b\u9577\u7f3a\u984d\u4e00\u540d
p340
aV\u6797\u6e05\u65d7(\u5168\u9ad4\u8463\u4e8b\u76e3\u5bdf\u4eba\u7d93\u672c\u90e895\u5e745\u670810\u65e5\u7d93\u6388\u4e2d\u5b57\u7b2c09532109620\u865f\u51fd\u64a4\u92b7\u76e3\u5bdf\u4eba\u8cc7\u683c\u767b\u8a18)
p341
aV\u7f3a\u984d\u4e00\u540d\uff0c\u66ab\u4e88\u4fdd\u7559
p342
aV
aV\u7f3a
a.